Certificate:
    Data:
        Version: 3 (0x2)
        Serial Number:
            cd:29:65:80:5e:11:de:9b:41:cb:e9:99:c0:13:8c:7c
        Signature Algorithm: sha256WithRSAEncryption
        Issuer: CN=Easy-RSA CA
        Validity
            Not Before: Jan 12 07:19:51 2024 GMT
            Not After : Apr 16 07:19:51 2026 GMT
        Subject: C=ET, ST=AddisAbaba, L=Addis Ababa, O=ASATradingPLC, OU=Dev, CN=ASATradingPLC
        Subject Public Key Info:
            Public Key Algorithm: rsaEncryption
                RSA Public-Key: (2048 bit)
                Modulus:
                    00:dc:25:d1:b6:89:2a:01:13:e5:ca:7e:f8:8d:77:
                    38:ea:de:10:46:49:e5:cf:3c:1e:a7:59:e7:2d:ad:
                    2e:cd:97:ae:0d:cd:62:70:f2:b8:e5:5d:ae:1d:da:
                    4c:99:f6:de:3d:2c:97:5e:74:98:fc:4d:ec:07:d1:
                    0d:ec:60:d1:c3:c2:ba:be:c5:0c:aa:dd:a3:b2:ee:
                    6a:be:3d:3f:7e:01:b9:c6:e6:12:b2:81:7b:28:8a:
                    13:66:e4:b5:ba:fd:6f:bc:00:62:98:ed:30:42:09:
                    de:2b:b0:84:ad:2e:32:a8:f8:04:b2:6d:57:fe:43:
                    fe:27:e1:6d:16:73:98:fc:38:a4:ea:22:a7:f5:ed:
                    e9:a6:3b:dc:04:05:c6:b7:36:30:e2:6a:57:91:3f:
                    c6:4f:1e:c2:12:b0:9d:c0:92:5a:e9:be:40:20:6d:
                    73:79:c5:d3:f8:66:8a:20:d8:78:29:30:09:3d:fa:
                    04:ce:de:e6:d2:48:b2:9e:91:95:68:52:05:d6:09:
                    1c:a5:82:d4:6b:3f:fc:a6:a8:43:82:52:f3:d4:4c:
                    86:57:b6:f0:de:ea:19:6b:8f:37:bc:4e:d4:2a:93:
                    22:28:33:d2:bc:9d:4a:61:bb:fc:3a:3e:bb:36:92:
                    80:f1:33:69:6f:f3:32:b7:a4:3f:7c:f8:bc:95:51:
                    87:75
                Exponent: 65537 (0x10001)
        X509v3 extensions:
            X509v3 Basic Constraints: 
                CA:FALSE
            X509v3 Subject Key Identifier: 
                70:EE:91:6E:59:68:65:8F:82:5C:FA:9B:31:04:7C:ED:F5:AD:E4:D0
            X509v3 Authority Key Identifier: 
                keyid:F4:86:0D:3F:CF:CD:A9:5E:2A:EA:E8:9C:1A:93:C8:3C:D1:6A:AE:F4
                DirName:/CN=Easy-RSA CA
                serial:02:77:C2:56:57:7F:62:90:02:AD:AA:49:71:4C:16:2F:CE:C4:FF:E1

            X509v3 Extended Key Usage: 
                TLS Web Server Authentication
            X509v3 Key Usage: 
                Digital Signature, Key Encipherment
            X509v3 Subject Alternative Name: 
                DNS:ASATradingPLC
    Signature Algorithm: sha256WithRSAEncryption
         91:6c:0b:b0:89:f6:71:c3:35:3f:79:70:a8:0d:46:c8:8a:c0:
         60:83:9d:97:9d:d4:41:3e:54:69:b1:92:87:4a:b5:ca:4e:16:
         94:3d:fc:a1:32:e1:bc:10:58:79:f7:2c:e8:f1:90:9d:1e:f0:
         24:24:66:0e:77:2e:f5:32:12:e7:cb:0b:ad:6b:69:e2:11:9f:
         db:b4:44:6b:e6:56:c0:f9:8d:f1:5e:31:49:de:41:6a:88:50:
         5d:ca:f3:ab:88:f8:0f:62:6c:94:20:2e:81:46:49:fe:b8:54:
         2a:7e:30:e8:e4:43:ea:f6:a3:62:14:8d:7e:06:70:2e:d0:09:
         90:0a:08:02:5b:24:82:44:b7:0c:1f:e3:67:d4:c9:90:34:87:
         2e:80:52:5f:a5:ae:7a:54:bc:52:f9:95:c2:a5:ac:ee:8b:15:
         15:a8:cb:50:33:bd:0b:4c:75:f2:26:f1:72:8c:30:7f:ed:f4:
         59:66:45:2f:e8:b9:82:3b:d5:ea:4a:5c:e7:06:3c:6f:50:da:
         bf:6c:f4:2b:79:da:c1:77:17:c6:34:a3:9b:71:0b:95:cf:ce:
         e2:77:20:2c:b8:87:d8:f9:60:2c:96:b6:a2:a7:a7:25:08:35:
         d4:7a:66:67:41:71:7b:a7:fc:16:2e:cd:a6:8e:c3:4d:b6:7f:
         12:aa:29:f5
-----BEGIN CERTIFICATE-----
MIID1DCCArygAwIBAgIRAM0pZYBeEd6bQcvpmcATjHwwDQYJKoZIhvcNAQELBQAw
FjEUMBIGA1UEAwwLRWFzeS1SU0EgQ0EwHhcNMjQwMTEyMDcxOTUxWhcNMjYwNDE2
MDcxOTUxWjB2MQswCQYDVQQGEwJFVDETMBEGA1UECAwKQWRkaXNBYmFiYTEUMBIG
A1UEBwwLQWRkaXMgQWJhYmExFjAUBgNVBAoMDUFTQVRyYWRpbmdQTEMxDDAKBgNV
BAsMA0RldjEWMBQGA1UEAwwNQVNBVHJhZGluZ1BMQzCCASIwDQYJKoZIhvcNAQEB
BQADggEPADCCAQoCggEBANwl0baJKgET5cp++I13OOreEEZJ5c88HqdZ5y2tLs2X
rg3NYnDyuOVdrh3aTJn23j0sl150mPxN7AfRDexg0cPCur7FDKrdo7Luar49P34B
ucbmErKBeyiKE2bktbr9b7wAYpjtMEIJ3iuwhK0uMqj4BLJtV/5D/ifhbRZzmPw4
pOoip/Xt6aY73AQFxrc2MOJqV5E/xk8ewhKwncCSWum+QCBtc3nF0/hmiiDYeCkw
CT36BM7e5tJIsp6RlWhSBdYJHKWC1Gs//KaoQ4JS89RMhle28N7qGWuPN7xO1CqT
Iigz0rydSmG7/Do+uzaSgPEzaW/zMrekP3z4vJVRh3UCAwEAAaOBvDCBuTAJBgNV
HRMEAjAAMB0GA1UdDgQWBBRw7pFuWWhlj4Jc+psxBHzt9a3k0DBRBgNVHSMESjBI
gBT0hg0/z82pXirq6Jwak8g80Wqu9KEapBgwFjEUMBIGA1UEAwwLRWFzeS1SU0Eg
Q0GCFAJ3wlZXf2KQAq2qSXFMFi/OxP/hMBMGA1UdJQQMMAoGCCsGAQUFBwMBMAsG
A1UdDwQEAwIFoDAYBgNVHREEETAPgg1BU0FUcmFkaW5nUExDMA0GCSqGSIb3DQEB
CwUAA4IBAQCRbAuwifZxwzU/eXCoDUbIisBgg52XndRBPlRpsZKHSrXKThaUPfyh
MuG8EFh59yzo8ZCdHvAkJGYOdy71MhLnywuta2niEZ/btERr5lbA+Y3xXjFJ3kFq
iFBdyvOriPgPYmyUIC6BRkn+uFQqfjDo5EPq9qNiFI1+BnAu0AmQCggCWySCRLcM
H+Nn1MmQNIcugFJfpa56VLxS+ZXCpazuixUVqMtQM70LTHXyJvFyjDB/7fRZZkUv
6LmCO9XqSlznBjxvUNq/bPQredrBdxfGNKObcQuVz87idyAsuIfY+WAslraip6cl
CDXUemZnQXF7p/wWLs2mjsNNtn8Sqin1
-----END CERTIFICATE-----
